target datalayout = "e-m:e-p270:32:32-p271:32:32-p272:64:64-i64:64-i128:128-f80:128-n8:16:32:64-S128"
target triple = "x86_64-pc-linux-gnu"

%struct.mi_heap_s = type { ptr, ptr, i64, i32, i64, [2 x i64], %struct.mi_random_cxt_s, i64, i64, i64, ptr, i8, i8, [129 x ptr], [75 x %struct.mi_page_queue_s] }
%struct.mi_random_cxt_s = type { [16 x i32], [16 x i32], i32, i8 }
%struct.mi_page_queue_s = type { ptr, ptr, i64 }
%struct.mi_memid_s = type { %union.anon, i8, i8, i8, i32 }
%union.anon = type { %struct.mi_memid_os_info }
%struct.mi_memid_os_info = type { ptr, i64 }
%struct.mi_page_s = type { i8, i8, i16, i16, %union.mi_page_flags_s, i8, ptr, ptr, i16, i8, i8, i64, ptr, i64, i64, ptr, ptr }
%union.mi_page_flags_s = type { i8 }
%struct.mi_segment_s = type { %struct.mi_memid_s, i8, i8, i64, ptr, ptr, ptr, i8, i8, i64, i64, i64, i64, i64, i64, ptr, ptr, i64, i64, i32, [1 x %struct.mi_page_s] }

@_mi_heap_empty = external hidden constant %struct.mi_heap_s, align 8
@_mi_heap_main = external hidden global %struct.mi_heap_s, align 8

; Function Attrs: inlinehint nounwind uwtable
define internal i64 @_mi_segment_page_idx_of(ptr noundef %0, ptr noundef %1) #1 {
  %3 = alloca ptr, align 8
  %4 = alloca ptr, align 8
  %5 = alloca i64, align 8
  %6 = alloca i64, align 8
  store ptr %0, ptr %3, align 8, !tbaa !63
  store ptr %1, ptr %4, align 8, !tbaa !42
  call void @llvm.lifetime.start.p0(i64 8, ptr %5) #10
  %7 = load ptr, ptr %4, align 8, !tbaa !42
  %8 = load ptr, ptr %3, align 8, !tbaa !63
  %9 = ptrtoint ptr %7 to i64
  %10 = ptrtoint ptr %8 to i64
  %11 = sub i64 %9, %10
  store i64 %11, ptr %5, align 8, !tbaa !39
  call void @llvm.lifetime.start.p0(i64 8, ptr %6) #10
  %12 = load i64, ptr %5, align 8, !tbaa !39
  %13 = load ptr, ptr %3, align 8, !tbaa !63
  %14 = getelementptr inbounds nuw %struct.mi_segment_s, ptr %13, i32 0, i32 18
  %15 = load i64, ptr %14, align 8, !tbaa !105
  %16 = lshr i64 %12, %15
  store i64 %16, ptr %6, align 8, !tbaa !39
  %17 = load i64, ptr %6, align 8, !tbaa !39
  call void @llvm.lifetime.end.p0(i64 8, ptr %6) #10
  call void @llvm.lifetime.end.p0(i64 8, ptr %5) #10
  ret i64 %17
}

; Function Attrs: inlinehint nounwind uwtable
define internal ptr @mi_page_heap(ptr noundef %0) #1 {
  %2 = alloca ptr, align 8
  %3 = alloca i64, align 8
  store ptr %0, ptr %2, align 8, !tbaa !49
  %4 = load ptr, ptr %2, align 8, !tbaa !49
  %5 = getelementptr inbounds nuw %struct.mi_page_s, ptr %4, i32 0, i32 14
  %6 = load atomic i64, ptr %5 monotonic, align 8
  store i64 %6, ptr %3, align 8
  %7 = load i64, ptr %3, align 8, !tbaa !39
  %8 = inttoptr i64 %7 to ptr
  ret ptr %8
}

; Function Attrs: inlinehint nounwind uwtable
define internal ptr @_mi_segment_page_of(ptr noundef %0, ptr noundef %1) #1 {
  %3 = alloca ptr, align 8
  %4 = alloca ptr, align 8
  %5 = alloca i64, align 8
  store ptr %0, ptr %3, align 8, !tbaa !63
  store ptr %1, ptr %4, align 8, !tbaa !42
  call void @llvm.lifetime.start.p0(i64 8, ptr %5) #10
  %6 = load ptr, ptr %3, align 8, !tbaa !63
  %7 = load ptr, ptr %4, align 8, !tbaa !42
  %8 = call i64 @_mi_segment_page_idx_of(ptr noundef %6, ptr noundef %7) #9
  store i64 %8, ptr %5, align 8, !tbaa !39
  %9 = load ptr, ptr %3, align 8, !tbaa !63
  %10 = getelementptr inbounds nuw %struct.mi_segment_s, ptr %9, i32 0, i32 20
  %11 = load i64, ptr %5, align 8, !tbaa !39
  %12 = getelementptr inbounds nuw [1 x %struct.mi_page_s], ptr %10, i64 0, i64 %11
  call void @llvm.lifetime.end.p0(i64 8, ptr %5) #10
  ret ptr %12
}

; Function Attrs: inlinehint nounwind uwtable
define internal i64 @_mi_ptr_cookie(ptr noundef %0) #1 {
  %2 = alloca ptr, align 8
  store ptr %0, ptr %2, align 8, !tbaa !42
  %3 = load ptr, ptr %2, align 8, !tbaa !42
  %4 = ptrtoint ptr %3 to i64
  %5 = load i64, ptr getelementptr inbounds nuw (%struct.mi_heap_s, ptr @_mi_heap_main, i32 0, i32 4), align 8, !tbaa !38
  %6 = xor i64 %4, %5
  ret i64 %6
}

; Function Attrs: inlinehint nounwind uwtable
define internal ptr @_mi_ptr_segment(ptr noundef %0) #1 {
  %2 = alloca ptr, align 8
  %3 = alloca ptr, align 8
  store ptr %0, ptr %2, align 8, !tbaa !42
  call void @llvm.lifetime.start.p0(i64 8, ptr %3) #10
  %4 = load ptr, ptr %2, align 8, !tbaa !42
  %5 = ptrtoint ptr %4 to i64
  %6 = sub i64 %5, 1
  %7 = and i64 %6, -4194304
  %8 = inttoptr i64 %7 to ptr
  store ptr %8, ptr %3, align 8, !tbaa !63
  %9 = load ptr, ptr %3, align 8, !tbaa !63
  %10 = ptrtoint ptr %9 to i64
  %11 = icmp sle i64 %10, 0
  br i1 %11, label %12, label %13

12:                                               ; preds = %1
  br label %15

13:                                               ; preds = %1
  %14 = load ptr, ptr %3, align 8, !tbaa !63
  br label %15

15:                                               ; preds = %13, %12
  %16 = phi ptr [ null, %12 ], [ %14, %13 ]
  call void @llvm.lifetime.end.p0(i64 8, ptr %3) #10
  ret ptr %16
}

; Function Attrs: nounwind uwtable
define internal ptr @mi_heap_of_block(ptr noundef %0) #0 {
  %2 = alloca ptr, align 8
  %3 = alloca ptr, align 8
  %4 = alloca ptr, align 8
  %5 = alloca i8, align 1
  %6 = alloca i32, align 4
  store ptr %0, ptr %3, align 8, !tbaa !42
  %7 = load ptr, ptr %3, align 8, !tbaa !42
  %8 = icmp eq ptr %7, null
  br i1 %8, label %9, label %10

9:                                                ; preds = %1
  store ptr null, ptr %2, align 8
  br label %36

10:                                               ; preds = %1
  call void @llvm.lifetime.start.p0(i64 8, ptr %4) #10
  %11 = load ptr, ptr %3, align 8, !tbaa !42
  %12 = call ptr @_mi_ptr_segment(ptr noundef %11) #9
  store ptr %12, ptr %4, align 8, !tbaa !63
  call void @llvm.lifetime.start.p0(i64 1, ptr %5) #10
  %13 = load ptr, ptr %4, align 8, !tbaa !63
  %14 = call i64 @_mi_ptr_cookie(ptr noundef %13) #9
  %15 = load ptr, ptr %4, align 8, !tbaa !63
  %16 = getelementptr inbounds nuw %struct.mi_segment_s, ptr %15, i32 0, i32 14
  %17 = load i64, ptr %16, align 8, !tbaa !64
  %18 = icmp eq i64 %14, %17
  %19 = zext i1 %18 to i8
  store i8 %19, ptr %5, align 1, !tbaa !10
  %20 = load i8, ptr %5, align 1, !tbaa !10, !range !12, !noundef !13
  %21 = trunc i8 %20 to i1
  %22 = xor i1 %21, true
  %23 = xor i1 %22, true
  %24 = xor i1 %23, true
  %25 = zext i1 %24 to i32
  %26 = sext i32 %25 to i64
  %27 = call i64 @llvm.expect.i64(i64 %26, i64 0)
  %28 = icmp ne i64 %27, 0
  br i1 %28, label %29, label %30

29:                                               ; preds = %10
  store ptr null, ptr %2, align 8
  store i32 1, ptr %6, align 4
  br label %35

30:                                               ; preds = %10
  %31 = load ptr, ptr %4, align 8, !tbaa !63
  %32 = load ptr, ptr %3, align 8, !tbaa !42
  %33 = call ptr @_mi_segment_page_of(ptr noundef %31, ptr noundef %32) #9
  %34 = call ptr @mi_page_heap(ptr noundef %33) #9
  store ptr %34, ptr %2, align 8
  store i32 1, ptr %6, align 4
  br label %35

35:                                               ; preds = %30, %29
  call void @llvm.lifetime.end.p0(i64 1, ptr %5) #10
  call void @llvm.lifetime.end.p0(i64 8, ptr %4) #10
  br label %36

36:                                               ; preds = %35, %9
  %37 = load ptr, ptr %2, align 8
  ret ptr %37
}

; Function Attrs: inlinehint nounwind uwtable
define internal zeroext i1 @mi_heap_is_initialized(ptr noundef %0) #1 {
  %2 = alloca ptr, align 8
  store ptr %0, ptr %2, align 8, !tbaa !3
  %3 = load ptr, ptr %2, align 8, !tbaa !3
  %4 = icmp ne ptr %3, null
  br i1 %4, label %5, label %8

5:                                                ; preds = %1
  %6 = load ptr, ptr %2, align 8, !tbaa !3
  %7 = icmp ne ptr %6, @_mi_heap_empty
  br label %8

8:                                                ; preds = %5, %1
  %9 = phi i1 [ false, %1 ], [ %7, %5 ]
  ret i1 %9
}

; Function Attrs: nounwind uwtable
define hidden zeroext i1 @mi_heap_contains_block(ptr noundef %0, ptr noundef %1) #0 {
  %3 = alloca i1, align 1
  %4 = alloca ptr, align 8
  %5 = alloca ptr, align 8
  store ptr %0, ptr %4, align 8, !tbaa !3
  store ptr %1, ptr %5, align 8, !tbaa !42
  %6 = load ptr, ptr %4, align 8, !tbaa !3
  %7 = icmp eq ptr %6, null
  br i1 %7, label %11, label %8

8:                                                ; preds = %2
  %9 = load ptr, ptr %4, align 8, !tbaa !3
  %10 = call zeroext i1 @mi_heap_is_initialized(ptr noundef %9) #9
  br i1 %10, label %12, label %11

11:                                               ; preds = %8, %2
  store i1 false, ptr %3, align 1
  br label %17

12:                                               ; preds = %8
  %13 = load ptr, ptr %4, align 8, !tbaa !3
  %14 = load ptr, ptr %5, align 8, !tbaa !42
  %15 = call ptr @mi_heap_of_block(ptr noundef %14) #9
  %16 = icmp eq ptr %13, %15
  store i1 %16, ptr %3, align 1
  br label %17

17:                                               ; preds = %12, %11
  %18 = load i1, ptr %3, align 1
  ret i1 %18
}