; Function Attrs: mustprogress nofree norecurse nounwind willreturn memory(readwrite, inaccessiblemem: none) uwtable
define hidden zeroext i1 @mi_heap_contains_block(ptr noundef readnone captures(address) %0, ptr noundef %1) local_unnamed_addr #4 {
  %3 = icmp ne ptr %0, null
  %4 = icmp ne ptr %0, @_mi_heap_empty
  %or.cond = and i1 %3, %4
  br i1 %or.cond, label %5, label %29

5:                                                ; preds = %2
  %6 = icmp eq ptr %1, null
  br i1 %6, label %mi_heap_of_block.exit, label %7

7:                                                ; preds = %5
  %8 = ptrtoint ptr %1 to i64
  %9 = add i64 %8, -1
  %10 = and i64 %9, -4194304
  %11 = inttoptr i64 %10 to ptr
  %12 = icmp slt i64 %9, 4194304
  %13 = select i1 %12, ptr null, ptr %11
  %14 = ptrtoint ptr %13 to i64
  %15 = load i64, ptr getelementptr inbounds nuw (i8, ptr @_mi_heap_main, i64 32), align 8, !tbaa !45
  %16 = xor i64 %15, %14
  %17 = getelementptr inbounds nuw i8, ptr %13, i64 112
  %18 = load i64, ptr %17, align 16, !tbaa !54
  %.not.i = icmp eq i64 %16, %18
  br i1 %.not.i, label %19, label %mi_heap_of_block.exit, !prof !57

19:                                               ; preds = %7
  %20 = sub i64 %8, %14
  %21 = getelementptr inbounds nuw i8, ptr %13, i64 144
  %22 = load i64, ptr %21, align 16, !tbaa !58
  %23 = lshr i64 %20, %22
  %.idx.i = mul nuw nsw i64 %23, 80
  %24 = getelementptr i8, ptr %13, i64 216
  %25 = getelementptr i8, ptr %24, i64 %.idx.i
  %26 = load atomic i64, ptr %25 monotonic, align 8
  %27 = inttoptr i64 %26 to ptr
  br label %mi_heap_of_block.exit

mi_heap_of_block.exit:                            ; preds = %5, %7, %19
  %.0.i = phi ptr [ null, %5 ], [ %27, %19 ], [ null, %7 ]
  %28 = icmp eq ptr %0, %.0.i
  br label %29

29:                                               ; preds = %2, %mi_heap_of_block.exit
  %.0 = phi i1 [ %28, %mi_heap_of_block.exit ], [ false, %2 ]
  ret i1 %.0
}